target datalayout = "e-m:e-p270:32:32-p271:32:32-p272:64:64-i64:64-i128:128-f80:128-n8:16:32:64-S128"
target triple = "x86_64-pc-linux-gnu"

%"union.pxrInternal_v0_24__pxrReserved__::pxr_half::half::uif" = type { i32 }
%"class.pxrInternal_v0_24__pxrReserved__::GfVec2i" = type { [2 x i32] }
%"class.pxrInternal_v0_24__pxrReserved__::GfVec2h" = type { [2 x %"class.pxrInternal_v0_24__pxrReserved__::pxr_half::half"] }
%"class.pxrInternal_v0_24__pxrReserved__::pxr_half::half" = type { i16 }

@_ZN32pxrInternal_v0_24__pxrReserved__8pxr_half4half8_toFloatE = external global [65536 x %"union.pxrInternal_v0_24__pxrReserved__::pxr_half::half::uif"], align 16

; Function Attrs: mustprogress nounwind uwtable
define linkonce_odr noundef float @_ZNK32pxrInternal_v0_24__pxrReserved__8pxr_half4halfcvfEv(ptr noundef nonnull align 2 dereferenceable(2) %0) #2 comdat align 2 {
  %2 = alloca ptr, align 8
  store ptr %0, ptr %2, align 8
  %3 = load ptr, ptr %2, align 8
  %4 = getelementptr inbounds nuw %"class.pxrInternal_v0_24__pxrReserved__::pxr_half::half", ptr %3, i32 0, i32 0
  %5 = load i16, ptr %4, align 2
  %6 = zext i16 %5 to i64
  %7 = getelementptr inbounds [65536 x %"union.pxrInternal_v0_24__pxrReserved__::pxr_half::half::uif"], ptr @_ZN32pxrInternal_v0_24__pxrReserved__8pxr_half4half8_toFloatE, i64 0, i64 %6
  %8 = load float, ptr %7, align 4
  ret float %8
}

; Function Attrs: mustprogress nounwind uwtable
define linkonce_odr noundef nonnull align 2 dereferenceable(2) ptr @_ZNK32pxrInternal_v0_24__pxrReserved__7GfVec2hixEm(ptr noundef nonnull align 2 dereferenceable(4) %0, i64 noundef %1) #2 comdat align 2 {
  %3 = alloca ptr, align 8
  %4 = alloca i64, align 8
  store ptr %0, ptr %3, align 8
  store i64 %1, ptr %4, align 8
  %5 = load ptr, ptr %3, align 8
  %6 = getelementptr inbounds nuw %"class.pxrInternal_v0_24__pxrReserved__::GfVec2h", ptr %5, i32 0, i32 0
  %7 = load i64, ptr %4, align 8
  %8 = getelementptr inbounds [2 x %"class.pxrInternal_v0_24__pxrReserved__::pxr_half::half"], ptr %6, i64 0, i64 %7
  ret ptr %8
}

; Function Attrs: mustprogress uwtable
define noundef zeroext i1 @_ZNK32pxrInternal_v0_24__pxrReserved__7GfVec2ieqERKNS_7GfVec2hE(ptr noundef nonnull align 4 dereferenceable(8) %0, ptr noundef nonnull align 2 dereferenceable(4) %1) #0 align 2 {
  %3 = alloca ptr, align 8
  %4 = alloca ptr, align 8
  store ptr %0, ptr %3, align 8
  store ptr %1, ptr %4, align 8
  %5 = load ptr, ptr %3, align 8
  %6 = getelementptr inbounds nuw %"class.pxrInternal_v0_24__pxrReserved__::GfVec2i", ptr %5, i32 0, i32 0
  %7 = getelementptr inbounds [2 x i32], ptr %6, i64 0, i64 0
  %8 = load i32, ptr %7, align 4
  %9 = sitofp i32 %8 to float
  %10 = load ptr, ptr %4, align 8
  %11 = call noundef nonnull align 2 dereferenceable(2) ptr @_ZNK32pxrInternal_v0_24__pxrReserved__7GfVec2hixEm(ptr noundef nonnull align 2 dereferenceable(4) %10, i64 noundef 0)
  %12 = call noundef float @_ZNK32pxrInternal_v0_24__pxrReserved__8pxr_half4halfcvfEv(ptr noundef nonnull align 2 dereferenceable(2) %11)
  %13 = fcmp oeq float %9, %12
  br i1 %13, label %14, label %23

14:                                               ; preds = %2
  %15 = getelementptr inbounds nuw %"class.pxrInternal_v0_24__pxrReserved__::GfVec2i", ptr %5, i32 0, i32 0
  %16 = getelementptr inbounds [2 x i32], ptr %15, i64 0, i64 1
  %17 = load i32, ptr %16, align 4
  %18 = sitofp i32 %17 to float
  %19 = load ptr, ptr %4, align 8
  %20 = call noundef nonnull align 2 dereferenceable(2) ptr @_ZNK32pxrInternal_v0_24__pxrReserved__7GfVec2hixEm(ptr noundef nonnull align 2 dereferenceable(4) %19, i64 noundef 1)
  %21 = call noundef float @_ZNK32pxrInternal_v0_24__pxrReserved__8pxr_half4halfcvfEv(ptr noundef nonnull align 2 dereferenceable(2) %20)
  %22 = fcmp oeq float %18, %21
  br label %23

23:                                               ; preds = %14, %2
  %24 = phi i1 [ false, %2 ], [ %22, %14 ]
  ret i1 %24
}